; Function Attrs: mustprogress uwtable
define noundef zeroext i1 @_ZN7rocksdb14BlockCacheTier5EraseERKNS_5SliceE(ptr noundef nonnull align 8 dereferenceable(6656) %0, ptr noundef nonnull align 8 dereferenceable(16) %1) unnamed_addr #0 align 2 personality ptr @__gxx_personality_v0 {
  %3 = getelementptr inbounds nuw i8, ptr %0, i64 32
  tail call void @_ZN7rocksdb4port7RWMutex9WriteLockEv(ptr noundef nonnull align 8 dereferenceable(56) %3)
  %4 = getelementptr inbounds nuw i8, ptr %0, i64 712
  %5 = invoke noundef ptr @_ZN7rocksdb22BlockCacheTierMetadata6RemoveERKNS_5SliceE(ptr noundef nonnull align 8 dereferenceable(96) %4, ptr noundef nonnull align 8 dereferenceable(16) %1)
          to label %6 unwind label %21

6:                                                ; preds = %2
  %7 = icmp eq ptr %5, null
  br i1 %7, label %17, label %8

8:                                                ; preds = %6
  %9 = load ptr, ptr %5, align 8, !tbaa !124
  %10 = getelementptr inbounds nuw i8, ptr %5, i64 16
  %11 = icmp eq ptr %9, %10
  br i1 %11, label %_ZNKSt7__cxx1112basic_stringIcSt11char_traitsIcESaIcEE11_M_is_localEv.exit.thread.i.i.i, label %_ZNKSt7__cxx1112basic_stringIcSt11char_traitsIcESaIcEE11_M_is_localEv.exit.i.i.i

_ZNKSt7__cxx1112basic_stringIcSt11char_traitsIcESaIcEE11_M_is_localEv.exit.thread.i.i.i: ; preds = %8
  %12 = getelementptr inbounds nuw i8, ptr %5, i64 8
  %13 = load i64, ptr %12, align 8, !tbaa !125
  %14 = icmp ult i64 %13, 16
  tail call void @llvm.assume(i1 %14)
  br label %_ZN7rocksdb9BlockInfoD2Ev.exit

_ZNKSt7__cxx1112basic_stringIcSt11char_traitsIcESaIcEE11_M_is_localEv.exit.i.i.i: ; preds = %8
  %15 = load i64, ptr %10, align 8, !tbaa !31
  %16 = add i64 %15, 1
  tail call void @_ZdlPvm(ptr noundef %9, i64 noundef %16) #20
  br label %_ZN7rocksdb9BlockInfoD2Ev.exit

_ZN7rocksdb9BlockInfoD2Ev.exit:                   ; preds = %_ZNKSt7__cxx1112basic_stringIcSt11char_traitsIcESaIcEE11_M_is_localEv.exit.thread.i.i.i, %_ZNKSt7__cxx1112basic_stringIcSt11char_traitsIcESaIcEE11_M_is_localEv.exit.i.i.i
  tail call void @_ZdlPvm(ptr noundef nonnull %5, i64 noundef 48) #20
  br label %17

17:                                               ; preds = %_ZN7rocksdb9BlockInfoD2Ev.exit, %6
  invoke void @_ZN7rocksdb4port7RWMutex11WriteUnlockEv(ptr noundef nonnull align 8 dereferenceable(56) %3)
          to label %_ZN7rocksdb9WriteLockD2Ev.exit unwind label %18

18:                                               ; preds = %17
  %19 = landingpad { ptr, i32 }
          catch ptr null
  %20 = extractvalue { ptr, i32 } %19, 0
  tail call void @__clang_call_terminate(ptr %20) #22
  unreachable

_ZN7rocksdb9WriteLockD2Ev.exit:                   ; preds = %17
  ret i1 true

21:                                               ; preds = %2
  %22 = landingpad { ptr, i32 }
          cleanup
  invoke void @_ZN7rocksdb4port7RWMutex11WriteUnlockEv(ptr noundef nonnull align 8 dereferenceable(56) %3)
          to label %_ZN7rocksdb9WriteLockD2Ev.exit4 unwind label %23

23:                                               ; preds = %21
  %24 = landingpad { ptr, i32 }
          catch ptr null
  %25 = extractvalue { ptr, i32 } %24, 0
  tail call void @__clang_call_terminate(ptr %25) #22
  unreachable

_ZN7rocksdb9WriteLockD2Ev.exit4:                  ; preds = %21
  resume { ptr, i32 } %22
}